target datalayout = "e-m:e-p270:32:32-p271:32:32-p272:64:64-i64:64-i128:128-f80:128-n8:16:32:64-S128"
target triple = "x86_64-pc-linux-gnu"

@.str = private unnamed_addr constant [116 x i8] c"generated/home/dtcxzyw/WorkSpace/Projects/compilers/llvm-opt-benchmark/bench/sundials/sundials/src/cvode/cvode_io.c\00", align 1
@.str.1 = private unnamed_addr constant [26 x i8] c"cvode_mem = NULL illegal.\00", align 1
@.str.2 = private unnamed_addr constant [48 x i8] c"SUNDIALS was not built with monitoring enabled.\00", align 1
@__func__.CVodeSetMonitorFrequency = private unnamed_addr constant [25 x i8] c"CVodeSetMonitorFrequency\00", align 1
@.str.3 = private unnamed_addr constant [28 x i8] c"step interval must be >= 0\0A\00", align 1

; Function Attrs: nounwind uwtable
define i32 @CVodeSetMonitorFrequency(ptr noundef %0, i64 noundef %1) #0 {
  %3 = alloca i32, align 4
  %4 = alloca ptr, align 8
  %5 = alloca i64, align 8
  %6 = alloca ptr, align 8
  store ptr %0, ptr %4, align 8
  store i64 %1, ptr %5, align 8
  %7 = load ptr, ptr %4, align 8
  %8 = icmp eq ptr %7, null
  br i1 %8, label %9, label %10

9:                                                ; preds = %2
  call void (ptr, i32, i32, ptr, ptr, ptr, ...) @cvProcessError(ptr noundef null, i32 noundef -21, i32 noundef 125, ptr noundef @__func__.CVodeSetMonitorFrequency, ptr noundef @.str, ptr noundef @.str.1)
  store i32 -21, ptr %3, align 4
  br label %17

10:                                               ; preds = %2
  %11 = load i64, ptr %5, align 8
  %12 = icmp slt i64 %11, 0
  br i1 %12, label %13, label %14

13:                                               ; preds = %10
  call void (ptr, i32, i32, ptr, ptr, ptr, ...) @cvProcessError(ptr noundef null, i32 noundef -22, i32 noundef 131, ptr noundef @__func__.CVodeSetMonitorFrequency, ptr noundef @.str, ptr noundef @.str.3)
  store i32 -22, ptr %3, align 4
  br label %17

14:                                               ; preds = %10
  %15 = load ptr, ptr %4, align 8
  store ptr %15, ptr %6, align 8
  %16 = load ptr, ptr %6, align 8
  call void (ptr, i32, i32, ptr, ptr, ptr, ...) @cvProcessError(ptr noundef %16, i32 noundef -22, i32 noundef 142, ptr noundef @__func__.CVodeSetMonitorFrequency, ptr noundef @.str, ptr noundef @.str.2)
  store i32 -22, ptr %3, align 4
  br label %17

17:                                               ; preds = %14, %13, %9
  %18 = load i32, ptr %3, align 4
  ret i32 %18
}