; Function Attrs: nounwind uwtable
define range(i32 -22, -20) i32 @CVodeSetMonitorFrequency(ptr noundef %0, i64 noundef %1) local_unnamed_addr #0 {
  %3 = icmp eq ptr %0, null
  br i1 %3, label %4, label %5

4:                                                ; preds = %2
  tail call void (ptr, i32, i32, ptr, ptr, ptr, ...) @cvProcessError(ptr noundef null, i32 noundef -21, i32 noundef 125, ptr noundef nonnull @__func__.CVodeSetMonitorFrequency, ptr noundef nonnull @.str, ptr noundef nonnull @.str.1) #7
  br label %9

5:                                                ; preds = %2
  %6 = icmp slt i64 %1, 0
  br i1 %6, label %7, label %8

7:                                                ; preds = %5
  tail call void (ptr, i32, i32, ptr, ptr, ptr, ...) @cvProcessError(ptr noundef null, i32 noundef -22, i32 noundef 131, ptr noundef nonnull @__func__.CVodeSetMonitorFrequency, ptr noundef nonnull @.str, ptr noundef nonnull @.str.3) #7
  br label %9

8:                                                ; preds = %5
  tail call void (ptr, i32, i32, ptr, ptr, ptr, ...) @cvProcessError(ptr noundef nonnull %0, i32 noundef -22, i32 noundef 142, ptr noundef nonnull @__func__.CVodeSetMonitorFrequency, ptr noundef nonnull @.str, ptr noundef nonnull @.str.2) #7
  br label %9

9:                                                ; preds = %8, %7, %4
  %.0 = phi i32 [ -21, %4 ], [ -22, %7 ], [ -22, %8 ]
  ret i32 %.0
}